; Function Attrs: nounwind uwtable
define void @Gia_ManSimplifyXor(ptr noundef captures(none) %0) local_unnamed_addr #0 {
  %2 = getelementptr i8, ptr %0, i64 4
  %.val34 = load i32, ptr %2, align 4, !tbaa !3
  %3 = icmp sgt i32 %.val34, 0
  br i1 %3, label %.lr.ph, label %.critedge.thread

.critedge.thread:                                 ; preds = %1
  store i32 0, ptr %2, align 4, !tbaa !3
  br label %21

.lr.ph:                                           ; preds = %1
  %4 = getelementptr i8, ptr %0, i64 8
  %.val30 = load ptr, ptr %4, align 8, !tbaa !10
  br label %5

5:                                                ; preds = %.lr.ph, %17
  %.val41 = phi i32 [ %.val34, %.lr.ph ], [ %.val, %17 ]
  %indvars.iv = phi i64 [ 0, %.lr.ph ], [ %indvars.iv.next, %17 ]
  %.038 = phi i32 [ 0, %.lr.ph ], [ %.1, %17 ]
  %.02336 = phi i32 [ -1, %.lr.ph ], [ %.124, %17 ]
  %.02535 = phi i32 [ 0, %.lr.ph ], [ %.126, %17 ]
  %6 = getelementptr inbounds nuw i32, ptr %.val30, i64 %indvars.iv
  %7 = load i32, ptr %6, align 4, !tbaa !11
  switch i32 %7, label %10 [
    i32 0, label %17
    i32 1, label %8
  ]

8:                                                ; preds = %5
  %9 = xor i32 %.038, 1
  br label %17

10:                                               ; preds = %5
  %.not28 = icmp eq i32 %.02336, %7
  br i1 %.not28, label %15, label %11

11:                                               ; preds = %10
  %12 = add nsw i32 %.02535, 1
  %13 = sext i32 %.02535 to i64
  %14 = getelementptr inbounds i32, ptr %.val30, i64 %13
  store i32 %7, ptr %14, align 4, !tbaa !11
  %.val.pre = load i32, ptr %2, align 4, !tbaa !3
  br label %17

15:                                               ; preds = %10
  %16 = add nsw i32 %.02535, -1
  br label %17

17:                                               ; preds = %5, %8, %15, %11
  %.val = phi i32 [ %.val41, %5 ], [ %.val41, %8 ], [ %.val.pre, %11 ], [ %.val41, %15 ]
  %.126 = phi i32 [ %.02535, %5 ], [ %.02535, %8 ], [ %12, %11 ], [ %16, %15 ]
  %.124 = phi i32 [ %.02336, %5 ], [ %.02336, %8 ], [ %7, %11 ], [ -1, %15 ]
  %.1 = phi i32 [ %.038, %5 ], [ %9, %8 ], [ %.038, %11 ], [ %.038, %15 ]
  %indvars.iv.next = add nuw nsw i64 %indvars.iv, 1
  %18 = sext i32 %.val to i64
  %19 = icmp slt i64 %indvars.iv.next, %18
  br i1 %19, label %5, label %.critedge, !llvm.loop !12

.critedge:                                        ; preds = %17
  store i32 %.126, ptr %2, align 4, !tbaa !3
  %20 = icmp eq i32 %.126, 0
  br i1 %20, label %21, label %37

21:                                               ; preds = %.critedge.thread, %.critedge
  %.0.lcssa46 = phi i32 [ 0, %.critedge.thread ], [ %.1, %.critedge ]
  %22 = load i32, ptr %0, align 8, !tbaa !14
  %23 = icmp eq i32 %22, 0
  %24 = getelementptr inbounds nuw i8, ptr %0, i64 8
  %25 = load ptr, ptr %24, align 8, !tbaa !10
  br i1 %23, label %26, label %Vec_IntPush.exit

26:                                               ; preds = %21
  %.not9.i.i = icmp eq ptr %25, null
  br i1 %.not9.i.i, label %29, label %27

27:                                               ; preds = %26
  %28 = tail call dereferenceable_or_null(64) ptr @realloc(ptr noundef nonnull %25, i64 noundef 64) #25
  %.pre.pre = load i32, ptr %2, align 4, !tbaa !3
  br label %Vec_IntGrow.exit.i

29:                                               ; preds = %26
  %30 = tail call noalias dereferenceable_or_null(64) ptr @malloc(i64 noundef 64) #26
  br label %Vec_IntGrow.exit.i

Vec_IntGrow.exit.i:                               ; preds = %29, %27
  %.pre = phi i32 [ %.pre.pre, %27 ], [ 0, %29 ]
  %31 = phi ptr [ %28, %27 ], [ %30, %29 ]
  store ptr %31, ptr %24, align 8, !tbaa !10
  store i32 16, ptr %0, align 8, !tbaa !14
  br label %Vec_IntPush.exit

Vec_IntPush.exit:                                 ; preds = %21, %Vec_IntGrow.exit.i
  %32 = phi i32 [ %.pre, %Vec_IntGrow.exit.i ], [ 0, %21 ]
  %33 = phi ptr [ %31, %Vec_IntGrow.exit.i ], [ %25, %21 ]
  %34 = add nsw i32 %32, 1
  store i32 %34, ptr %2, align 4, !tbaa !3
  %35 = sext i32 %32 to i64
  %36 = getelementptr inbounds i32, ptr %33, i64 %35
  store i32 %.0.lcssa46, ptr %36, align 4, !tbaa !11
  br label %42

37:                                               ; preds = %.critedge
  %.not = icmp eq i32 %.1, 0
  br i1 %.not, label %42, label %38

38:                                               ; preds = %37
  %39 = getelementptr i8, ptr %0, i64 8
  %.val31 = load ptr, ptr %39, align 8, !tbaa !10
  %40 = load i32, ptr %.val31, align 4, !tbaa !11
  %41 = xor i32 %40, 1
  store i32 %41, ptr %.val31, align 4, !tbaa !11
  br label %42

42:                                               ; preds = %37, %38, %Vec_IntPush.exit
  ret void
}